target datalayout = "e-m:e-p270:32:32-p271:32:32-p272:64:64-i64:64-i128:128-f80:128-n8:16:32:64-S128"
target triple = "x86_64-pc-linux-gnu"

%"class.icu_77::RBBINode" = type { i32, ptr, ptr, ptr, ptr, i32, %"class.icu_77::UnicodeString", i32, i32, i8, i32, i8, i8, i8, ptr, ptr, ptr }
%"class.icu_77::UnicodeString" = type { %"class.icu_77::Replaceable", %"union.icu_77::UnicodeString::StackBufferOrFields" }
%"class.icu_77::Replaceable" = type { %"class.icu_77::UObject" }
%"class.icu_77::UObject" = type { ptr }
%"union.icu_77::UnicodeString::StackBufferOrFields" = type { %struct.anon.0, [32 x i8] }
%struct.anon.0 = type { i16, i32, i32, ptr }

@_ZN6icu_778RBBINodeD1Ev = unnamed_addr alias void (ptr), ptr @_ZN6icu_778RBBINodeD2Ev

; Function Attrs: inlinehint mustprogress nounwind uwtable
define internal noundef signext i8 @_ZL9U_FAILURE10UErrorCode(i32 noundef %0) #2 {
  %2 = alloca i32, align 4
  store i32 %0, ptr %2, align 4, !tbaa !15
  %3 = load i32, ptr %2, align 4, !tbaa !15
  %4 = icmp sgt i32 %3, 0
  %5 = zext i1 %4 to i8
  ret i8 %5
}

; Function Attrs: mustprogress uwtable
define noundef ptr @_ZN6icu_778RBBINode16flattenVariablesER10UErrorCodei(ptr noundef nonnull align 8 dereferenceable(160) %0, ptr noundef nonnull align 4 dereferenceable(4) %1, i32 noundef %2) #1 align 2 {
  %4 = alloca ptr, align 8
  %5 = alloca ptr, align 8
  %6 = alloca ptr, align 8
  %7 = alloca i32, align 4
  %8 = alloca ptr, align 8
  %9 = alloca i32, align 4
  store ptr %0, ptr %5, align 8, !tbaa !23
  store ptr %1, ptr %6, align 8, !tbaa !22
  store i32 %2, ptr %7, align 4, !tbaa !14
  %10 = load ptr, ptr %5, align 8
  %11 = load ptr, ptr %6, align 8, !tbaa !22
  %12 = load i32, ptr %11, align 4, !tbaa !15
  %13 = call noundef signext i8 @_ZL9U_FAILURE10UErrorCode(i32 noundef %12)
  %14 = icmp ne i8 %13, 0
  br i1 %14, label %15, label %16

15:                                               ; preds = %3
  store ptr %10, ptr %4, align 8
  br label %106

16:                                               ; preds = %3
  %17 = load i32, ptr %7, align 4, !tbaa !14
  %18 = icmp sgt i32 %17, 3500
  br i1 %18, label %19, label %21

19:                                               ; preds = %16
  %20 = load ptr, ptr %6, align 8, !tbaa !22
  store i32 31, ptr %20, align 4, !tbaa !15
  store ptr %10, ptr %4, align 8
  br label %106

21:                                               ; preds = %16
  %22 = getelementptr inbounds nuw %"class.icu_77::RBBINode", ptr %10, i32 0, i32 0
  %23 = load i32, ptr %22, align 8, !tbaa !27
  %24 = icmp eq i32 %23, 2
  br i1 %24, label %25, label %51

25:                                               ; preds = %21
  call void @llvm.lifetime.start.p0(i64 8, ptr %8) #10
  %26 = getelementptr inbounds nuw %"class.icu_77::RBBINode", ptr %10, i32 0, i32 2
  %27 = load ptr, ptr %26, align 8, !tbaa !36
  %28 = load ptr, ptr %6, align 8, !tbaa !22
  %29 = load i32, ptr %7, align 4, !tbaa !14
  %30 = add nsw i32 %29, 1
  %31 = call noundef ptr @_ZN6icu_778RBBINode9cloneTreeER10UErrorCodei(ptr noundef nonnull align 8 dereferenceable(160) %27, ptr noundef nonnull align 4 dereferenceable(4) %28, i32 noundef %30)
  store ptr %31, ptr %8, align 8, !tbaa !23
  %32 = load ptr, ptr %6, align 8, !tbaa !22
  %33 = load i32, ptr %32, align 4, !tbaa !15
  %34 = call noundef signext i8 @_ZL9U_FAILURE10UErrorCode(i32 noundef %33)
  %35 = icmp ne i8 %34, 0
  br i1 %35, label %36, label %37

36:                                               ; preds = %25
  store ptr %10, ptr %4, align 8
  store i32 1, ptr %9, align 4
  br label %50

37:                                               ; preds = %25
  %38 = getelementptr inbounds nuw %"class.icu_77::RBBINode", ptr %10, i32 0, i32 12
  %39 = load i8, ptr %38, align 1, !tbaa !43
  %40 = load ptr, ptr %8, align 8, !tbaa !23
  %41 = getelementptr inbounds nuw %"class.icu_77::RBBINode", ptr %40, i32 0, i32 12
  store i8 %39, ptr %41, align 1, !tbaa !43
  %42 = getelementptr inbounds nuw %"class.icu_77::RBBINode", ptr %10, i32 0, i32 13
  %43 = load i8, ptr %42, align 2, !tbaa !44
  %44 = load ptr, ptr %8, align 8, !tbaa !23
  %45 = getelementptr inbounds nuw %"class.icu_77::RBBINode", ptr %44, i32 0, i32 13
  store i8 %43, ptr %45, align 2, !tbaa !44
  %46 = icmp eq ptr %10, null
  br i1 %46, label %48, label %47

47:                                               ; preds = %37
  call void @_ZN6icu_778RBBINodeD1Ev(ptr noundef nonnull align 8 dereferenceable(160) %10) #10
  call void @_ZN6icu_777UMemorydlEPv(ptr noundef %10) #10
  br label %48

48:                                               ; preds = %47, %37
  %49 = load ptr, ptr %8, align 8, !tbaa !23
  store ptr %49, ptr %4, align 8
  store i32 1, ptr %9, align 4
  br label %50

50:                                               ; preds = %48, %36
  call void @llvm.lifetime.end.p0(i64 8, ptr %8) #10
  br label %106

51:                                               ; preds = %21
  %52 = getelementptr inbounds nuw %"class.icu_77::RBBINode", ptr %10, i32 0, i32 2
  %53 = load ptr, ptr %52, align 8, !tbaa !36
  %54 = icmp ne ptr %53, null
  br i1 %54, label %55, label %78

55:                                               ; preds = %51
  %56 = getelementptr inbounds nuw %"class.icu_77::RBBINode", ptr %10, i32 0, i32 2
  %57 = load ptr, ptr %56, align 8, !tbaa !36
  %58 = load ptr, ptr %6, align 8, !tbaa !22
  %59 = load i32, ptr %7, align 4, !tbaa !14
  %60 = add nsw i32 %59, 1
  %61 = call noundef ptr @_ZN6icu_778RBBINode16flattenVariablesER10UErrorCodei(ptr noundef nonnull align 8 dereferenceable(160) %57, ptr noundef nonnull align 4 dereferenceable(4) %58, i32 noundef %60)
  %62 = getelementptr inbounds nuw %"class.icu_77::RBBINode", ptr %10, i32 0, i32 2
  store ptr %61, ptr %62, align 8, !tbaa !36
  %63 = getelementptr inbounds nuw %"class.icu_77::RBBINode", ptr %10, i32 0, i32 2
  %64 = load ptr, ptr %63, align 8, !tbaa !36
  %65 = icmp eq ptr %64, null
  br i1 %65, label %66, label %68

66:                                               ; preds = %55
  %67 = load ptr, ptr %6, align 8, !tbaa !22
  store i32 7, ptr %67, align 4, !tbaa !15
  br label %68

68:                                               ; preds = %66, %55
  %69 = load ptr, ptr %6, align 8, !tbaa !22
  %70 = load i32, ptr %69, align 4, !tbaa !15
  %71 = call noundef signext i8 @_ZL9U_FAILURE10UErrorCode(i32 noundef %70)
  %72 = icmp ne i8 %71, 0
  br i1 %72, label %73, label %74

73:                                               ; preds = %68
  store ptr %10, ptr %4, align 8
  br label %106

74:                                               ; preds = %68
  %75 = getelementptr inbounds nuw %"class.icu_77::RBBINode", ptr %10, i32 0, i32 2
  %76 = load ptr, ptr %75, align 8, !tbaa !36
  %77 = getelementptr inbounds nuw %"class.icu_77::RBBINode", ptr %76, i32 0, i32 1
  store ptr %10, ptr %77, align 8, !tbaa !35
  br label %78

78:                                               ; preds = %74, %51
  %79 = getelementptr inbounds nuw %"class.icu_77::RBBINode", ptr %10, i32 0, i32 3
  %80 = load ptr, ptr %79, align 8, !tbaa !37
  %81 = icmp ne ptr %80, null
  br i1 %81, label %82, label %105

82:                                               ; preds = %78
  %83 = getelementptr inbounds nuw %"class.icu_77::RBBINode", ptr %10, i32 0, i32 3
  %84 = load ptr, ptr %83, align 8, !tbaa !37
  %85 = load ptr, ptr %6, align 8, !tbaa !22
  %86 = load i32, ptr %7, align 4, !tbaa !14
  %87 = add nsw i32 %86, 1
  %88 = call noundef ptr @_ZN6icu_778RBBINode16flattenVariablesER10UErrorCodei(ptr noundef nonnull align 8 dereferenceable(160) %84, ptr noundef nonnull align 4 dereferenceable(4) %85, i32 noundef %87)
  %89 = getelementptr inbounds nuw %"class.icu_77::RBBINode", ptr %10, i32 0, i32 3
  store ptr %88, ptr %89, align 8, !tbaa !37
  %90 = getelementptr inbounds nuw %"class.icu_77::RBBINode", ptr %10, i32 0, i32 3
  %91 = load ptr, ptr %90, align 8, !tbaa !37
  %92 = icmp eq ptr %91, null
  br i1 %92, label %93, label %95

93:                                               ; preds = %82
  %94 = load ptr, ptr %6, align 8, !tbaa !22
  store i32 7, ptr %94, align 4, !tbaa !15
  br label %95

95:                                               ; preds = %93, %82
  %96 = load ptr, ptr %6, align 8, !tbaa !22
  %97 = load i32, ptr %96, align 4, !tbaa !15
  %98 = call noundef signext i8 @_ZL9U_FAILURE10UErrorCode(i32 noundef %97)
  %99 = icmp ne i8 %98, 0
  br i1 %99, label %100, label %101

100:                                              ; preds = %95
  store ptr %10, ptr %4, align 8
  br label %106

101:                                              ; preds = %95
  %102 = getelementptr inbounds nuw %"class.icu_77::RBBINode", ptr %10, i32 0, i32 3
  %103 = load ptr, ptr %102, align 8, !tbaa !37
  %104 = getelementptr inbounds nuw %"class.icu_77::RBBINode", ptr %103, i32 0, i32 1
  store ptr %10, ptr %104, align 8, !tbaa !35
  br label %105

105:                                              ; preds = %101, %78
  store ptr %10, ptr %4, align 8
  br label %106

106:                                              ; preds = %105, %100, %73, %50, %19, %15
  %107 = load ptr, ptr %4, align 8
  ret ptr %107
}