; Function Attrs: mustprogress uwtable
define noundef ptr @_ZN6icu_778RBBINode16flattenVariablesER10UErrorCodei(ptr noundef nonnull align 8 dereferenceable(160) %0, ptr noundef nonnull align 4 dereferenceable(4) %1, i32 noundef %2) local_unnamed_addr #1 align 2 {
  %4 = load i32, ptr %1, align 4, !tbaa !13
  %5 = icmp slt i32 %4, 1
  br i1 %5, label %6, label %46

6:                                                ; preds = %3
  %7 = icmp sgt i32 %2, 3500
  br i1 %7, label %8, label %9

8:                                                ; preds = %6
  store i32 31, ptr %1, align 4, !tbaa !13
  br label %46

9:                                                ; preds = %6
  %10 = load i32, ptr %0, align 8, !tbaa !18
  %11 = icmp eq i32 %10, 2
  %12 = getelementptr inbounds nuw i8, ptr %0, i64 16
  %13 = load ptr, ptr %12, align 8, !tbaa !39
  br i1 %11, label %14, label %26

14:                                               ; preds = %9
  %15 = add nsw i32 %2, 1
  %16 = tail call noundef ptr @_ZN6icu_778RBBINode9cloneTreeER10UErrorCodei(ptr noundef nonnull align 8 dereferenceable(160) %13, ptr noundef nonnull align 4 dereferenceable(4) %1, i32 noundef %15)
  %17 = load i32, ptr %1, align 4, !tbaa !13
  %18 = icmp slt i32 %17, 1
  br i1 %18, label %19, label %46

19:                                               ; preds = %14
  %20 = getelementptr inbounds nuw i8, ptr %0, i64 129
  %21 = load i8, ptr %20, align 1, !tbaa !37
  %22 = getelementptr inbounds nuw i8, ptr %16, i64 129
  store i8 %21, ptr %22, align 1, !tbaa !37
  %23 = getelementptr inbounds nuw i8, ptr %0, i64 130
  %24 = load i8, ptr %23, align 2, !tbaa !38
  %25 = getelementptr inbounds nuw i8, ptr %16, i64 130
  store i8 %24, ptr %25, align 2, !tbaa !38
  tail call void @_ZN6icu_778RBBINodeD1Ev(ptr noundef nonnull align 8 dereferenceable(160) %0) #12
  tail call void @_ZN6icu_777UMemorydlEPv(ptr noundef nonnull %0) #12
  br label %46

26:                                               ; preds = %9
  %.not21 = icmp eq ptr %13, null
  br i1 %.not21, label %35, label %27

27:                                               ; preds = %26
  %28 = add nsw i32 %2, 1
  %29 = tail call noundef ptr @_ZN6icu_778RBBINode16flattenVariablesER10UErrorCodei(ptr noundef nonnull align 8 dereferenceable(160) %13, ptr noundef nonnull align 4 dereferenceable(4) %1, i32 noundef %28)
  store ptr %29, ptr %12, align 8, !tbaa !39
  %30 = icmp eq ptr %29, null
  br i1 %30, label %.thread, label %31

.thread:                                          ; preds = %27
  store i32 7, ptr %1, align 4, !tbaa !13
  br label %46

31:                                               ; preds = %27
  %.pre = load i32, ptr %1, align 4, !tbaa !13
  %32 = icmp slt i32 %.pre, 1
  br i1 %32, label %33, label %46

33:                                               ; preds = %31
  %34 = getelementptr inbounds nuw i8, ptr %29, i64 8
  store ptr %0, ptr %34, align 8, !tbaa !40
  br label %35

35:                                               ; preds = %33, %26
  %36 = getelementptr inbounds nuw i8, ptr %0, i64 24
  %37 = load ptr, ptr %36, align 8, !tbaa !41
  %.not23 = icmp eq ptr %37, null
  br i1 %.not23, label %46, label %38

38:                                               ; preds = %35
  %39 = add nsw i32 %2, 1
  %40 = tail call noundef ptr @_ZN6icu_778RBBINode16flattenVariablesER10UErrorCodei(ptr noundef nonnull align 8 dereferenceable(160) %37, ptr noundef nonnull align 4 dereferenceable(4) %1, i32 noundef %39)
  store ptr %40, ptr %36, align 8, !tbaa !41
  %41 = icmp eq ptr %40, null
  br i1 %41, label %.thread28, label %42

.thread28:                                        ; preds = %38
  store i32 7, ptr %1, align 4, !tbaa !13
  br label %46

42:                                               ; preds = %38
  %.pre27 = load i32, ptr %1, align 4, !tbaa !13
  %43 = icmp slt i32 %.pre27, 1
  br i1 %43, label %44, label %46

44:                                               ; preds = %42
  %45 = getelementptr inbounds nuw i8, ptr %40, i64 8
  store ptr %0, ptr %45, align 8, !tbaa !40
  br label %46

46:                                               ; preds = %.thread28, %.thread, %35, %44, %42, %31, %19, %14, %3, %8
  %.0 = phi ptr [ %0, %8 ], [ %0, %3 ], [ %16, %19 ], [ %0, %14 ], [ %0, %31 ], [ %0, %42 ], [ %0, %44 ], [ %0, %35 ], [ %0, %.thread ], [ %0, %.thread28 ]
  ret ptr %.0
}